target datalayout = "e-m:e-p270:32:32-p271:32:32-p272:64:64-i64:64-i128:128-f80:128-n8:16:32:64-S128"
target triple = "x86_64-pc-linux-gnu"

%struct.rhash_context_ext = type { %struct.rhash_context, i32, i32, i32, ptr, ptr, ptr, [0 x %struct.rhash_vector_item] }
%struct.rhash_context = type { i64, i32 }
%struct.rhash_vector_item = type { ptr, ptr }
%struct.rhash_hash_info = type { ptr, i64, i64, ptr, ptr, ptr, ptr }

; Function Attrs: nounwind uwtable
define dso_local i32 @rhash_update(ptr noundef %0, ptr noundef %1, i64 noundef %2) #0 {
  %4 = alloca i32, align 4
  %5 = alloca ptr, align 8
  %6 = alloca ptr, align 8
  %7 = alloca i64, align 8
  %8 = alloca ptr, align 8
  %9 = alloca i32, align 4
  %10 = alloca i32, align 4
  %11 = alloca ptr, align 8
  store ptr %0, ptr %5, align 8, !tbaa !33
  store ptr %1, ptr %6, align 8, !tbaa !38
  store i64 %2, ptr %7, align 8, !tbaa !8
  call void @llvm.lifetime.start.p0(i64 8, ptr %8) #8
  %12 = load ptr, ptr %5, align 8, !tbaa !33
  store ptr %12, ptr %8, align 8, !tbaa !13
  call void @llvm.lifetime.start.p0(i64 4, ptr %9) #8
  %13 = load ptr, ptr %8, align 8, !tbaa !13
  %14 = getelementptr inbounds nuw %struct.rhash_context_ext, ptr %13, i32 0, i32 3
  %15 = load volatile i32, ptr %14, align 8, !tbaa !4
  %16 = icmp ne i32 %15, -1340228930
  br i1 %16, label %17, label %18

17:                                               ; preds = %3
  store i32 0, ptr %4, align 4
  store i32 1, ptr %10, align 4
  br label %54

18:                                               ; preds = %3
  %19 = load i64, ptr %7, align 8, !tbaa !8
  %20 = load ptr, ptr %5, align 8, !tbaa !33
  %21 = getelementptr inbounds nuw %struct.rhash_context, ptr %20, i32 0, i32 0
  %22 = load i64, ptr %21, align 8, !tbaa !39
  %23 = add i64 %22, %19
  store i64 %23, ptr %21, align 8, !tbaa !39
  store i32 0, ptr %9, align 4, !tbaa !4
  br label %24

24:                                               ; preds = %50, %18
  %25 = load i32, ptr %9, align 4, !tbaa !4
  %26 = load ptr, ptr %8, align 8, !tbaa !13
  %27 = getelementptr inbounds nuw %struct.rhash_context_ext, ptr %26, i32 0, i32 1
  %28 = load i32, ptr %27, align 8, !tbaa !4
  %29 = icmp ult i32 %25, %28
  br i1 %29, label %30, label %53

30:                                               ; preds = %24
  call void @llvm.lifetime.start.p0(i64 8, ptr %11) #8
  %31 = load ptr, ptr %8, align 8, !tbaa !13
  %32 = getelementptr inbounds nuw %struct.rhash_context_ext, ptr %31, i32 0, i32 7
  %33 = load i32, ptr %9, align 4, !tbaa !4
  %34 = zext i32 %33 to i64
  %35 = getelementptr inbounds nuw [0 x %struct.rhash_vector_item], ptr %32, i64 0, i64 %34
  %36 = getelementptr inbounds nuw %struct.rhash_vector_item, ptr %35, i32 0, i32 0
  %37 = load ptr, ptr %36, align 8, !tbaa !27
  store ptr %37, ptr %11, align 8, !tbaa !15
  %38 = load ptr, ptr %11, align 8, !tbaa !15
  %39 = getelementptr inbounds nuw %struct.rhash_hash_info, ptr %38, i32 0, i32 4
  %40 = load ptr, ptr %39, align 8, !tbaa !40
  %41 = load ptr, ptr %8, align 8, !tbaa !13
  %42 = getelementptr inbounds nuw %struct.rhash_context_ext, ptr %41, i32 0, i32 7
  %43 = load i32, ptr %9, align 4, !tbaa !4
  %44 = zext i32 %43 to i64
  %45 = getelementptr inbounds nuw [0 x %struct.rhash_vector_item], ptr %42, i64 0, i64 %44
  %46 = getelementptr inbounds nuw %struct.rhash_vector_item, ptr %45, i32 0, i32 1
  %47 = load ptr, ptr %46, align 8, !tbaa !29
  %48 = load ptr, ptr %6, align 8, !tbaa !38
  %49 = load i64, ptr %7, align 8, !tbaa !8
  call void %40(ptr noundef %47, ptr noundef %48, i64 noundef %49)
  call void @llvm.lifetime.end.p0(i64 8, ptr %11) #8
  br label %50

50:                                               ; preds = %30
  %51 = load i32, ptr %9, align 4, !tbaa !4
  %52 = add i32 %51, 1
  store i32 %52, ptr %9, align 4, !tbaa !4
  br label %24, !llvm.loop !41

53:                                               ; preds = %24
  store i32 0, ptr %4, align 4
  store i32 1, ptr %10, align 4
  br label %54

54:                                               ; preds = %53, %17
  call void @llvm.lifetime.end.p0(i64 4, ptr %9) #8
  call void @llvm.lifetime.end.p0(i64 8, ptr %8) #8
  %55 = load i32, ptr %4, align 4
  ret i32 %55
}