; Function Attrs: nounwind uwtable
define dso_local noundef i32 @rhash_update(ptr noundef %0, ptr noundef %1, i64 noundef %2) local_unnamed_addr #0 {
  %4 = getelementptr inbounds nuw i8, ptr %0, i64 24
  %5 = load volatile i32, ptr %4, align 8, !tbaa !4
  %.not = icmp eq i32 %5, -1340228930
  br i1 %.not, label %6, label %.loopexit

6:                                                ; preds = %3
  %7 = load i64, ptr %0, align 8, !tbaa !29
  %8 = add i64 %7, %2
  store i64 %8, ptr %0, align 8, !tbaa !29
  %9 = getelementptr inbounds nuw i8, ptr %0, i64 16
  %10 = load i32, ptr %9, align 8, !tbaa !4
  %.not16 = icmp eq i32 %10, 0
  br i1 %.not16, label %.loopexit, label %.lr.ph

.lr.ph:                                           ; preds = %6
  %11 = getelementptr inbounds nuw i8, ptr %0, i64 56
  br label %12

12:                                               ; preds = %.lr.ph, %12
  %indvars.iv = phi i64 [ 0, %.lr.ph ], [ %indvars.iv.next, %12 ]
  %13 = getelementptr inbounds nuw [0 x %struct.rhash_vector_item], ptr %11, i64 0, i64 %indvars.iv
  %14 = load ptr, ptr %13, align 8, !tbaa !20
  %15 = getelementptr inbounds nuw i8, ptr %14, i64 32
  %16 = load ptr, ptr %15, align 8, !tbaa !30
  %17 = getelementptr inbounds nuw i8, ptr %13, i64 8
  %18 = load ptr, ptr %17, align 8, !tbaa !22
  tail call void %16(ptr noundef %18, ptr noundef %1, i64 noundef %2) #15
  %indvars.iv.next = add nuw nsw i64 %indvars.iv, 1
  %19 = load i32, ptr %9, align 8, !tbaa !4
  %20 = zext i32 %19 to i64
  %21 = icmp samesign ult i64 %indvars.iv.next, %20
  br i1 %21, label %12, label %.loopexit, !llvm.loop !31

.loopexit:                                        ; preds = %12, %6, %3
  ret i32 0
}